target datalayout = "e-m:e-p270:32:32-p271:32:32-p272:64:64-i64:64-i128:128-f80:128-n8:16:32:64-S128"
target triple = "x86_64-pc-linux-gnu"

%struct.___itt_global = type { [8 x i8], i64, i64, i64, i64, i64, i64, %union.pthread_mutex_t, ptr, ptr, ptr, ptr, ptr, ptr, ptr, ptr, i32, ptr, i32, ptr, ptr }
%union.pthread_mutex_t = type { %struct.__pthread_mutex_s }
%struct.__pthread_mutex_s = type { i32, i32, i32, i32, i32, i16, i16, %struct.__pthread_internal_list }
%struct.__pthread_internal_list = type { ptr, ptr }
%struct.___itt_id = type { i64, i64, i64 }

@__itt_relation_add_to_current_ex_ptr__3_0 = global ptr @_ZL41__itt_relation_add_to_current_ex_init_3_0PK13___itt_domainP19___itt_clock_domainy14__itt_relation9___itt_id, align 8

; Function Attrs: mustprogress sspstrong uwtable
define internal void @_ZL41__itt_relation_add_to_current_ex_init_3_0PK13___itt_domainP19___itt_clock_domainy14__itt_relation9___itt_id(ptr noundef %0, ptr noundef %1, i64 noundef %2, i32 noundef %3, ptr noundef byval(%struct.___itt_id) align 8 %4) #0 {
  %6 = alloca ptr, align 8
  %7 = alloca ptr, align 8
  %8 = alloca i64, align 8
  %9 = alloca i32, align 4
  %10 = alloca %struct.___itt_id, align 8
  store ptr %0, ptr %6, align 8, !tbaa !32
  store ptr %1, ptr %7, align 8, !tbaa !57
  store i64 %2, ptr %8, align 8, !tbaa !34
  store i32 %3, ptr %9, align 4, !tbaa !43
  %11 = load volatile i64, ptr getelementptr inbounds nuw (%struct.___itt_global, ptr @__itt__ittapi_global, i32 0, i32 4), align 8, !tbaa !3
  %12 = icmp ne i64 %11, 0
  br i1 %12, label %17, label %13

13:                                               ; preds = %5
  %14 = load ptr, ptr getelementptr inbounds nuw (%struct.___itt_global, ptr @__itt__ittapi_global, i32 0, i32 13), align 8, !tbaa !21
  %15 = icmp eq ptr %14, null
  br i1 %15, label %16, label %17

16:                                               ; preds = %13
  call void @ITT_DoOneTimeInitialization()
  br label %17

17:                                               ; preds = %16, %13, %5
  %18 = load ptr, ptr @__itt_relation_add_to_current_ex_ptr__3_0, align 8, !tbaa !22
  %19 = icmp ne ptr %18, null
  br i1 %19, label %20, label %29

20:                                               ; preds = %17
  %21 = load ptr, ptr @__itt_relation_add_to_current_ex_ptr__3_0, align 8, !tbaa !22
  %22 = icmp ne ptr %21, @_ZL41__itt_relation_add_to_current_ex_init_3_0PK13___itt_domainP19___itt_clock_domainy14__itt_relation9___itt_id
  br i1 %22, label %23, label %29

23:                                               ; preds = %20
  %24 = load ptr, ptr @__itt_relation_add_to_current_ex_ptr__3_0, align 8, !tbaa !22
  %25 = load ptr, ptr %6, align 8, !tbaa !32
  %26 = load ptr, ptr %7, align 8, !tbaa !57
  %27 = load i64, ptr %8, align 8, !tbaa !34
  %28 = load i32, ptr %9, align 4, !tbaa !43
  call void @llvm.memcpy.p0.p0.i64(ptr align 8 %10, ptr align 8 %4, i64 24, i1 false), !tbaa.struct !33
  call void %24(ptr noundef %25, ptr noundef %26, i64 noundef %27, i32 noundef %28, ptr noundef byval(%struct.___itt_id) align 8 %10)
  br label %30

29:                                               ; preds = %20, %17
  br label %30

30:                                               ; preds = %29, %23
  ret void
}